target datalayout = "e-m:e-p270:32:32-p271:32:32-p272:64:64-i64:64-i128:128-f80:128-n8:16:32:64-S128"
target triple = "x86_64-pc-linux-gnu"

%"class.std::__cxx11::basic_string" = type { %"struct.std::__cxx11::basic_string<char>::_Alloc_hider", i64, %union.anon }
%"struct.std::__cxx11::basic_string<char>::_Alloc_hider" = type { ptr }
%union.anon = type { i64, [8 x i8] }
%struct.Lexer = type { %struct.StringPiece, %struct.StringPiece, ptr, ptr }
%struct.StringPiece = type { ptr, i64 }

@_ZZN5Lexer13EatWhitespaceEvE4yybm = internal constant <{ [33 x i8], [223 x i8] }> <{ [33 x i8] c"\00\00\00\00\00\00\00\00\00\00\00\00\00\00\00\00\00\00\00\00\00\00\00\00\00\00\00\00\00\00\00\00\80", [223 x i8] zeroinitializer }>, align 16

; Function Attrs: mustprogress nounwind uwtable
define available_externally noundef i64 @_ZNKSt7__cxx1112basic_stringIcSt11char_traitsIcESaIcEE4sizeEv(ptr noundef nonnull align 8 dereferenceable(32) %0) #3 align 2 {
  %2 = alloca ptr, align 8
  store ptr %0, ptr %2, align 8, !tbaa !9
  %3 = load ptr, ptr %2, align 8
  %4 = getelementptr inbounds nuw %"class.std::__cxx11::basic_string", ptr %3, i32 0, i32 1
  %5 = load i64, ptr %4, align 8, !tbaa !50
  ret i64 %5
}

; Function Attrs: mustprogress nounwind uwtable
define dso_local void @_ZN5Lexer13EatWhitespaceEv(ptr noundef nonnull align 8 dereferenceable(48) %0) #3 align 2 {
  %2 = alloca ptr, align 8
  %3 = alloca ptr, align 8
  %4 = alloca ptr, align 8
  %5 = alloca i8, align 1
  %6 = alloca i32, align 4
  store ptr %0, ptr %2, align 8, !tbaa !4
  %7 = load ptr, ptr %2, align 8
  call void @llvm.lifetime.start.p0(i64 8, ptr %3) #13
  %8 = getelementptr inbounds nuw %struct.Lexer, ptr %7, i32 0, i32 2
  %9 = load ptr, ptr %8, align 8, !tbaa !36
  store ptr %9, ptr %3, align 8, !tbaa !18
  call void @llvm.lifetime.start.p0(i64 8, ptr %4) #13
  br label %10

10:                                               ; preds = %88, %1
  %11 = load ptr, ptr %3, align 8, !tbaa !18
  %12 = getelementptr inbounds nuw %struct.Lexer, ptr %7, i32 0, i32 2
  store ptr %11, ptr %12, align 8, !tbaa !36
  call void @llvm.lifetime.start.p0(i64 1, ptr %5) #13
  %13 = load ptr, ptr %3, align 8, !tbaa !18
  %14 = load i8, ptr %13, align 1, !tbaa !20
  store i8 %14, ptr %5, align 1, !tbaa !20
  %15 = load i8, ptr %5, align 1, !tbaa !20
  %16 = zext i8 %15 to i32
  %17 = add nsw i32 0, %16
  %18 = sext i32 %17 to i64
  %19 = getelementptr inbounds [256 x i8], ptr @_ZZN5Lexer13EatWhitespaceEvE4yybm, i64 0, i64 %18
  %20 = load i8, ptr %19, align 1, !tbaa !20
  %21 = zext i8 %20 to i32
  %22 = and i32 %21, 128
  %23 = icmp ne i32 %22, 0
  br i1 %23, label %24, label %25

24:                                               ; preds = %10
  br label %43

25:                                               ; preds = %10
  %26 = load i8, ptr %5, align 1, !tbaa !20
  %27 = zext i8 %26 to i32
  %28 = icmp sle i32 %27, 0
  br i1 %28, label %29, label %30

29:                                               ; preds = %25
  br label %36

30:                                               ; preds = %25
  %31 = load i8, ptr %5, align 1, !tbaa !20
  %32 = zext i8 %31 to i32
  %33 = icmp eq i32 %32, 36
  br i1 %33, label %34, label %35

34:                                               ; preds = %30
  br label %58

35:                                               ; preds = %30
  br label %39

36:                                               ; preds = %29
  %37 = load ptr, ptr %3, align 8, !tbaa !18
  %38 = getelementptr inbounds nuw i8, ptr %37, i32 1
  store ptr %38, ptr %3, align 8, !tbaa !18
  store i32 2, ptr %6, align 4
  br label %88

39:                                               ; preds = %35
  %40 = load ptr, ptr %3, align 8, !tbaa !18
  %41 = getelementptr inbounds nuw i8, ptr %40, i32 1
  store ptr %41, ptr %3, align 8, !tbaa !18
  br label %42

42:                                               ; preds = %83, %71, %39
  store i32 2, ptr %6, align 4
  br label %88

43:                                               ; preds = %56, %24
  %44 = load ptr, ptr %3, align 8, !tbaa !18
  %45 = getelementptr inbounds nuw i8, ptr %44, i32 1
  store ptr %45, ptr %3, align 8, !tbaa !18
  %46 = load i8, ptr %45, align 1, !tbaa !20
  store i8 %46, ptr %5, align 1, !tbaa !20
  %47 = load i8, ptr %5, align 1, !tbaa !20
  %48 = zext i8 %47 to i32
  %49 = add nsw i32 0, %48
  %50 = sext i32 %49 to i64
  %51 = getelementptr inbounds [256 x i8], ptr @_ZZN5Lexer13EatWhitespaceEvE4yybm, i64 0, i64 %50
  %52 = load i8, ptr %51, align 1, !tbaa !20
  %53 = zext i8 %52 to i32
  %54 = and i32 %53, 128
  %55 = icmp ne i32 %54, 0
  br i1 %55, label %56, label %57

56:                                               ; preds = %43
  br label %43

57:                                               ; preds = %43
  store i32 3, ptr %6, align 4
  br label %88, !llvm.loop !40

58:                                               ; preds = %34
  %59 = load ptr, ptr %3, align 8, !tbaa !18
  %60 = getelementptr inbounds nuw i8, ptr %59, i32 1
  store ptr %60, ptr %3, align 8, !tbaa !18
  store ptr %60, ptr %4, align 8, !tbaa !18
  %61 = load i8, ptr %60, align 1, !tbaa !20
  store i8 %61, ptr %5, align 1, !tbaa !20
  %62 = load i8, ptr %5, align 1, !tbaa !20
  %63 = zext i8 %62 to i32
  %64 = icmp eq i32 %63, 10
  br i1 %64, label %65, label %66

65:                                               ; preds = %58
  br label %72

66:                                               ; preds = %58
  %67 = load i8, ptr %5, align 1, !tbaa !20
  %68 = zext i8 %67 to i32
  %69 = icmp eq i32 %68, 13
  br i1 %69, label %70, label %71

70:                                               ; preds = %66
  br label %75

71:                                               ; preds = %66
  br label %42

72:                                               ; preds = %65
  %73 = load ptr, ptr %3, align 8, !tbaa !18
  %74 = getelementptr inbounds nuw i8, ptr %73, i32 1
  store ptr %74, ptr %3, align 8, !tbaa !18
  store i32 3, ptr %6, align 4
  br label %88, !llvm.loop !40

75:                                               ; preds = %70
  %76 = load ptr, ptr %3, align 8, !tbaa !18
  %77 = getelementptr inbounds nuw i8, ptr %76, i32 1
  store ptr %77, ptr %3, align 8, !tbaa !18
  %78 = load i8, ptr %77, align 1, !tbaa !20
  store i8 %78, ptr %5, align 1, !tbaa !20
  %79 = load i8, ptr %5, align 1, !tbaa !20
  %80 = zext i8 %79 to i32
  %81 = icmp eq i32 %80, 10
  br i1 %81, label %82, label %83

82:                                               ; preds = %75
  br label %85

83:                                               ; preds = %75
  %84 = load ptr, ptr %4, align 8, !tbaa !18
  store ptr %84, ptr %3, align 8, !tbaa !18
  br label %42

85:                                               ; preds = %82
  %86 = load ptr, ptr %3, align 8, !tbaa !18
  %87 = getelementptr inbounds nuw i8, ptr %86, i32 1
  store ptr %87, ptr %3, align 8, !tbaa !18
  store i32 3, ptr %6, align 4
  br label %88, !llvm.loop !40

88:                                               ; preds = %85, %72, %57, %42, %36
  call void @llvm.lifetime.end.p0(i64 1, ptr %5) #13
  %89 = load i32, ptr %6, align 4
  switch i32 %89, label %91 [
    i32 2, label %90
    i32 3, label %10
  ]

90:                                               ; preds = %88
  call void @llvm.lifetime.end.p0(i64 8, ptr %4) #13
  call void @llvm.lifetime.end.p0(i64 8, ptr %3) #13
  ret void

91:                                               ; preds = %88
  unreachable
}

; Function Attrs: mustprogress uwtable
define available_externally noundef nonnull align 8 dereferenceable(32) ptr @_ZNSt7__cxx1112basic_stringIcSt11char_traitsIcESaIcEE6assignEPKcm(ptr noundef nonnull align 8 dereferenceable(32) %0, ptr noundef %1, i64 noundef %2) #0 align 2 {
  %4 = alloca ptr, align 8
  %5 = alloca ptr, align 8
  %6 = alloca i64, align 8
  store ptr %0, ptr %4, align 8, !tbaa !9
  store ptr %1, ptr %5, align 8, !tbaa !18
  store i64 %2, ptr %6, align 8, !tbaa !34
  %7 = load ptr, ptr %4, align 8
  %8 = call noundef i64 @_ZNKSt7__cxx1112basic_stringIcSt11char_traitsIcESaIcEE4sizeEv(ptr noundef nonnull align 8 dereferenceable(32) %7) #13
  %9 = load ptr, ptr %5, align 8, !tbaa !18
  %10 = load i64, ptr %6, align 8, !tbaa !34
  %11 = call noundef nonnull align 8 dereferenceable(32) ptr @_ZNSt7__cxx1112basic_stringIcSt11char_traitsIcESaIcEE10_M_replaceEmmPKcm(ptr noundef nonnull align 8 dereferenceable(32) %7, i64 noundef 0, i64 noundef %8, ptr noundef %9, i64 noundef %10)
  ret ptr %11
}

; Function Attrs: mustprogress uwtable
define dso_local noundef zeroext i1 @_ZN5Lexer9ReadIdentEPNSt7__cxx1112basic_stringIcSt11char_traitsIcESaIcEEE(ptr noundef nonnull align 8 dereferenceable(48) %0, ptr noundef %1) #0 align 2 {
  %3 = alloca i1, align 1
  %4 = alloca ptr, align 8
  %5 = alloca ptr, align 8
  %6 = alloca ptr, align 8
  %7 = alloca ptr, align 8
  %8 = alloca i8, align 1
  %9 = alloca i32, align 4
  store ptr %0, ptr %4, align 8, !tbaa !4
  store ptr %1, ptr %5, align 8, !tbaa !9
  %10 = load ptr, ptr %4, align 8
  call void @llvm.lifetime.start.p0(i64 8, ptr %6) #13
  %11 = getelementptr inbounds nuw %struct.Lexer, ptr %10, i32 0, i32 2
  %12 = load ptr, ptr %11, align 8, !tbaa !36
  store ptr %12, ptr %6, align 8, !tbaa !18
  call void @llvm.lifetime.start.p0(i64 8, ptr %7) #13
  br label %13

13:                                               ; preds = %2
  %14 = load ptr, ptr %6, align 8, !tbaa !18
  store ptr %14, ptr %7, align 8, !tbaa !18
  call void @llvm.lifetime.start.p0(i64 1, ptr %8) #13
  %15 = load ptr, ptr %6, align 8, !tbaa !18
  %16 = load i8, ptr %15, align 1, !tbaa !20
  store i8 %16, ptr %8, align 1, !tbaa !20
  %17 = load i8, ptr %8, align 1, !tbaa !20
  %18 = zext i8 %17 to i32
  %19 = add nsw i32 0, %18
  %20 = sext i32 %19 to i64
  %21 = getelementptr inbounds [256 x i8], ptr @_ZZN5Lexer9ReadIdentEPNSt7__cxx1112basic_stringIcSt11char_traitsIcESaIcEEEE4yybm, i64 0, i64 %20
  %22 = load i8, ptr %21, align 1, !tbaa !20
  %23 = zext i8 %22 to i32
  %24 = and i32 %23, 128
  %25 = icmp ne i32 %24, 0
  br i1 %25, label %26, label %27

26:                                               ; preds = %13
  br label %32

27:                                               ; preds = %13
  %28 = load ptr, ptr %6, align 8, !tbaa !18
  %29 = getelementptr inbounds nuw i8, ptr %28, i32 1
  store ptr %29, ptr %6, align 8, !tbaa !18
  %30 = load ptr, ptr %7, align 8, !tbaa !18
  %31 = getelementptr inbounds nuw %struct.Lexer, ptr %10, i32 0, i32 3
  store ptr %30, ptr %31, align 8, !tbaa !19
  store i1 false, ptr %3, align 1
  store i32 1, ptr %9, align 4
  br label %55

32:                                               ; preds = %45, %26
  %33 = load ptr, ptr %6, align 8, !tbaa !18
  %34 = getelementptr inbounds nuw i8, ptr %33, i32 1
  store ptr %34, ptr %6, align 8, !tbaa !18
  %35 = load i8, ptr %34, align 1, !tbaa !20
  store i8 %35, ptr %8, align 1, !tbaa !20
  %36 = load i8, ptr %8, align 1, !tbaa !20
  %37 = zext i8 %36 to i32
  %38 = add nsw i32 0, %37
  %39 = sext i32 %38 to i64
  %40 = getelementptr inbounds [256 x i8], ptr @_ZZN5Lexer9ReadIdentEPNSt7__cxx1112basic_stringIcSt11char_traitsIcESaIcEEEE4yybm, i64 0, i64 %39
  %41 = load i8, ptr %40, align 1, !tbaa !20
  %42 = zext i8 %41 to i32
  %43 = and i32 %42, 128
  %44 = icmp ne i32 %43, 0
  br i1 %44, label %45, label %46

45:                                               ; preds = %32
  br label %32

46:                                               ; preds = %32
  %47 = load ptr, ptr %5, align 8, !tbaa !9
  %48 = load ptr, ptr %7, align 8, !tbaa !18
  %49 = load ptr, ptr %6, align 8, !tbaa !18
  %50 = load ptr, ptr %7, align 8, !tbaa !18
  %51 = ptrtoint ptr %49 to i64
  %52 = ptrtoint ptr %50 to i64
  %53 = sub i64 %51, %52
  %54 = call noundef nonnull align 8 dereferenceable(32) ptr @_ZNSt7__cxx1112basic_stringIcSt11char_traitsIcESaIcEE6assignEPKcm(ptr noundef nonnull align 8 dereferenceable(32) %47, ptr noundef %48, i64 noundef %53)
  store i32 2, ptr %9, align 4
  br label %55

55:                                               ; preds = %46, %27
  call void @llvm.lifetime.end.p0(i64 1, ptr %8) #13
  %56 = load i32, ptr %9, align 4
  switch i32 %56, label %62 [
    i32 2, label %57
  ]

57:                                               ; preds = %55
  %58 = load ptr, ptr %7, align 8, !tbaa !18
  %59 = getelementptr inbounds nuw %struct.Lexer, ptr %10, i32 0, i32 3
  store ptr %58, ptr %59, align 8, !tbaa !19
  %60 = load ptr, ptr %6, align 8, !tbaa !18
  %61 = getelementptr inbounds nuw %struct.Lexer, ptr %10, i32 0, i32 2
  store ptr %60, ptr %61, align 8, !tbaa !36
  call void @_ZN5Lexer13EatWhitespaceEv(ptr noundef nonnull align 8 dereferenceable(48) %10)
  store i1 true, ptr %3, align 1
  store i32 1, ptr %9, align 4
  br label %62

62:                                               ; preds = %57, %55
  call void @llvm.lifetime.end.p0(i64 8, ptr %7) #13
  call void @llvm.lifetime.end.p0(i64 8, ptr %6) #13
  %63 = load i1, ptr %3, align 1
  ret i1 %63
}