; Function Attrs: mustprogress uwtable
define dso_local noundef zeroext i1 @_ZN5Lexer9ReadIdentEPNSt7__cxx1112basic_stringIcSt11char_traitsIcESaIcEEE(ptr noundef nonnull align 8 captures(none) dereferenceable(48) %0, ptr noundef %1) local_unnamed_addr #0 align 2 {
  %3 = getelementptr inbounds nuw i8, ptr %0, i64 32
  %4 = load ptr, ptr %3, align 8, !tbaa !32
  %5 = load i8, ptr %4, align 1, !tbaa !23
  %6 = zext i8 %5 to i64
  %7 = getelementptr inbounds nuw [256 x i8], ptr @_ZZN5Lexer9ReadIdentEPNSt7__cxx1112basic_stringIcSt11char_traitsIcESaIcEEEE4yybm, i64 0, i64 %6
  %8 = load i8, ptr %7, align 1, !tbaa !23
  %.not = icmp slt i8 %8, 0
  br i1 %.not, label %.preheader, label %14

.preheader:                                       ; preds = %2, %.preheader
  %.016 = phi ptr [ %9, %.preheader ], [ %4, %2 ]
  %9 = getelementptr inbounds nuw i8, ptr %.016, i64 1
  %10 = load i8, ptr %9, align 1, !tbaa !23
  %11 = zext i8 %10 to i64
  %12 = getelementptr inbounds nuw [256 x i8], ptr @_ZZN5Lexer9ReadIdentEPNSt7__cxx1112basic_stringIcSt11char_traitsIcESaIcEEEE4yybm, i64 0, i64 %11
  %13 = load i8, ptr %12, align 1, !tbaa !23
  %.not18 = icmp sgt i8 %13, -1
  br i1 %.not18, label %16, label %.preheader

14:                                               ; preds = %2
  %15 = getelementptr inbounds nuw i8, ptr %0, i64 40
  store ptr %4, ptr %15, align 8, !tbaa !12
  br label %_ZN5Lexer13EatWhitespaceEv.exit

16:                                               ; preds = %.preheader
  %17 = ptrtoint ptr %9 to i64
  %18 = ptrtoint ptr %4 to i64
  %19 = sub i64 %17, %18
  %20 = getelementptr inbounds nuw i8, ptr %1, i64 8
  %21 = load i64, ptr %20, align 8, !tbaa !24
  %22 = tail call noundef nonnull align 8 dereferenceable(32) ptr @_ZNSt7__cxx1112basic_stringIcSt11char_traitsIcESaIcEE10_M_replaceEmmPKcm(ptr noundef nonnull align 8 dereferenceable(32) %1, i64 noundef 0, i64 noundef %21, ptr noundef nonnull %4, i64 noundef %19)
  %23 = getelementptr inbounds nuw i8, ptr %0, i64 40
  store ptr %4, ptr %23, align 8, !tbaa !12
  br label %.backedge.i

.backedge.i:                                      ; preds = %.backedge.i.backedge, %16
  %.018.i = phi ptr [ %9, %16 ], [ %.018.i.be, %.backedge.i.backedge ]
  store ptr %.018.i, ptr %3, align 8, !tbaa !32
  %24 = load i8, ptr %.018.i, align 1, !tbaa !23
  %25 = zext i8 %24 to i64
  %26 = getelementptr inbounds nuw [256 x i8], ptr @_ZZN5Lexer13EatWhitespaceEvE4yybm, i64 0, i64 %25
  %27 = load i8, ptr %26, align 1, !tbaa !23
  %.not.i = icmp sgt i8 %27, -1
  br i1 %.not.i, label %28, label %.preheader.i

28:                                               ; preds = %.backedge.i
  %cond.i = icmp eq i8 %24, 36
  br i1 %cond.i, label %34, label %_ZN5Lexer13EatWhitespaceEv.exit

.preheader.i:                                     ; preds = %.backedge.i, %.preheader.i
  %.1.i = phi ptr [ %29, %.preheader.i ], [ %.018.i, %.backedge.i ]
  %29 = getelementptr inbounds nuw i8, ptr %.1.i, i64 1
  %30 = load i8, ptr %29, align 1, !tbaa !23
  %31 = zext i8 %30 to i64
  %32 = getelementptr inbounds nuw [256 x i8], ptr @_ZZN5Lexer13EatWhitespaceEvE4yybm, i64 0, i64 %31
  %33 = load i8, ptr %32, align 1, !tbaa !23
  %.not21.i = icmp sgt i8 %33, -1
  br i1 %.not21.i, label %.backedge.i.backedge, label %.preheader.i, !llvm.loop !33

34:                                               ; preds = %28
  %35 = getelementptr inbounds nuw i8, ptr %.018.i, i64 1
  %36 = load i8, ptr %35, align 1, !tbaa !23
  switch i8 %36, label %_ZN5Lexer13EatWhitespaceEv.exit [
    i8 10, label %37
    i8 13, label %39
  ]

37:                                               ; preds = %34
  %38 = getelementptr inbounds nuw i8, ptr %.018.i, i64 2
  br label %.backedge.i.backedge

39:                                               ; preds = %34
  %40 = getelementptr inbounds nuw i8, ptr %.018.i, i64 2
  %41 = load i8, ptr %40, align 1, !tbaa !23
  %.not27.i = icmp eq i8 %41, 10
  %42 = getelementptr inbounds nuw i8, ptr %.018.i, i64 3
  br i1 %.not27.i, label %.backedge.i.backedge, label %_ZN5Lexer13EatWhitespaceEv.exit

.backedge.i.backedge:                             ; preds = %.preheader.i, %39, %37
  %.018.i.be = phi ptr [ %38, %37 ], [ %42, %39 ], [ %29, %.preheader.i ]
  br label %.backedge.i

_ZN5Lexer13EatWhitespaceEv.exit:                  ; preds = %39, %34, %28, %14
  ret i1 %.not
}